; Function Attrs: mustprogress uwtable
define internal fastcc noundef i32 @_ZN3ue2L15streamStateSizeE10RepeatTypeRKNS_5depthES3_j(i32 noundef range(i32 3, 6) %0, ptr noundef nonnull readonly align 4 captures(none) dereferenceable(4) %1, ptr noundef nonnull readonly align 4 captures(none) dereferenceable(4) %2, i32 noundef %3) unnamed_addr #2 personality ptr @__gxx_personality_v0 {
  %5 = alloca %"struct.ue2::RepeatStateInfo", align 8
  call void @llvm.lifetime.start.p0(i64 80, ptr nonnull %5) #16
  call void @_ZN3ue215RepeatStateInfoC2E10RepeatTypeRKNS_5depthES4_j(ptr noundef nonnull align 8 dereferenceable(80) %5, i32 noundef %0, ptr noundef nonnull align 4 dereferenceable(4) %1, ptr noundef nonnull align 4 dereferenceable(4) %2, i32 noundef %3)
  %6 = load i32, ptr %5, align 8
  %7 = getelementptr inbounds nuw i8, ptr %5, i64 56
  %8 = load ptr, ptr %7, align 8
  %.not.i.i.i.i = icmp eq ptr %8, null
  br i1 %.not.i.i.i.i, label %_ZNSt6vectorImSaImEED2Ev.exit.i, label %9

9:                                                ; preds = %4
  call void @_ZdlPv(ptr noundef nonnull %8) #19
  br label %_ZNSt6vectorImSaImEED2Ev.exit.i

_ZNSt6vectorImSaImEED2Ev.exit.i:                  ; preds = %9, %4
  %10 = getelementptr inbounds nuw i8, ptr %5, i64 32
  %11 = load ptr, ptr %10, align 8
  %.not.i.i.i1.i = icmp eq ptr %11, null
  br i1 %.not.i.i.i1.i, label %_ZN3ue215RepeatStateInfoD2Ev.exit, label %12

12:                                               ; preds = %_ZNSt6vectorImSaImEED2Ev.exit.i
  call void @_ZdlPv(ptr noundef nonnull %11) #19
  br label %_ZN3ue215RepeatStateInfoD2Ev.exit

_ZN3ue215RepeatStateInfoD2Ev.exit:                ; preds = %_ZNSt6vectorImSaImEED2Ev.exit.i, %12
  call void @llvm.lifetime.end.p0(i64 80, ptr nonnull %5) #16
  ret i32 %6
}